; Function Attrs: mustprogress nofree norecurse nosync nounwind willreturn memory(argmem: read) uwtable
define internal range(i32 1, 5) i32 @pg_euctw_mblen(ptr noundef readonly captures(none) %0) #0 {
  %2 = load i8, ptr %0, align 1
  switch i8 %2, label %4 [
    i8 -114, label %5
    i8 -113, label %3
  ]

3:                                                ; preds = %1
  br label %5

4:                                                ; preds = %1
  %.not = icmp sgt i8 %2, -1
  %. = select i1 %.not, i32 1, i32 2
  br label %5

5:                                                ; preds = %4, %1, %3
  %.0 = phi i32 [ 3, %3 ], [ 4, %1 ], [ %., %4 ]
  ret i32 %.0
}